(lp0
(dp1
I1
(dp2
S'connections'
p3
(lp4
(I8
(I1
F0.04
tp5
I5
tp6
a(I9
(I0
F0.3
tp7
I5
tp8
a(I2
(I0
F0.0
tp9
I5
tp10
asS'x'
p11
I0
sS'dend_len'
p12
I100
sS'dend_pas'
p13
I-65
sS'label'
p14
S'AWCL'
p15
ssI2
(dp16
g3
(lp17
(I10
(I0
F0.3
tp18
I5
tp19
a(I11
(I1
F0.04
tp20
I5
tp21
a(I1
(I0
F0.0
tp22
I5
tp23
asg11
I0
sg12
I100
sg13
I-65
sg14
S'AWCR'
p24
ssI3
(dp25
g3
(lp26
sg11
I0
sg12
I100
sg13
I-65
sg14
S'MR'
p27
ssI4
(dp28
g3
(lp29
sg11
I0
sg12
I100
sg13
I-65
sg14
S'ML'
p30
ssI8
(dp31
g3
(lp32
(I4
(I1
F0.01
tp33
I5
tp34
asg11
I0
sg12
I100
sg13
I-65
sg14
S'AIBL'
p35
ssI9
(dp36
g3
(lp37
(I12
(I1
F0.0005
tp38
I5
tp39
asg11
I0
sg12
I100
sg13
I2000
sg14
S'AIYL'
p40
ssI10
(dp41
g3
(lp42
(I12
(I1
F0.0005
tp43
I5
tp44
asg11
I0
sg12
I100
sg13
I2000
sg14
S'AIYR'
p45
ssI11
(dp46
g3
(lp47
(I3
(I1
F0.01
tp48
I5
tp49
asg11
I0
sg12
I100
sg13
I-65
sg14
S'AIBR'
p50
ssI12
(dp51
g3
(lp52
(I4
(I1
F0.04
tp53
I5
tp54
a(I3
(I1
F0.04
tp55
I5
tp56
asg11
I0
sg12
I100
sg13
I-65
sg14
S'X'
p57
ssa.